target datalayout = "e-m:e-p270:32:32-p271:32:32-p272:64:64-i64:64-i128:128-f80:128-n8:16:32:64-S128"
target triple = "x86_64-pc-linux-gnu"

%struct.Abc_Ntk_t_ = type { i32, i32, ptr, ptr, ptr, ptr, ptr, ptr, ptr, ptr, ptr, ptr, ptr, [11 x i32], i32, i32, i32, i32, ptr, i32, ptr, ptr, i32, i32, i32, double, i32, %struct.Vec_Int_t_, ptr, ptr, ptr, ptr, ptr, float, i32, ptr, ptr, ptr, ptr, ptr, ptr, ptr, ptr, ptr, ptr, ptr, ptr, ptr, ptr, ptr, ptr, ptr, ptr, ptr, ptr, ptr }
%struct.Vec_Int_t_ = type { i32, i32, ptr }
%struct.Vec_Ptr_t_ = type { i32, i32, ptr }
%struct.Abc_Obj_t_ = type { ptr, ptr, i32, i32, %struct.Vec_Int_t_, %struct.Vec_Int_t_, %union.anon, %union.anon.0 }
%union.anon = type { ptr }
%union.anon.0 = type { ptr }

; Function Attrs: nounwind uwtable
define internal ptr @Vec_PtrEntry(ptr noundef %0, i32 noundef %1) #0 {
  %3 = alloca ptr, align 8
  %4 = alloca i32, align 4
  store ptr %0, ptr %3, align 8
  store i32 %1, ptr %4, align 4
  %5 = load ptr, ptr %3, align 8
  %6 = getelementptr inbounds %struct.Vec_Ptr_t_, ptr %5, i32 0, i32 2
  %7 = load ptr, ptr %6, align 8
  %8 = load i32, ptr %4, align 4
  %9 = sext i32 %8 to i64
  %10 = getelementptr inbounds ptr, ptr %7, i64 %9
  %11 = load ptr, ptr %10, align 8
  ret ptr %11
}

; Function Attrs: nounwind uwtable
define internal ptr @Abc_NtkObj(ptr noundef %0, i32 noundef %1) #0 {
  %3 = alloca ptr, align 8
  %4 = alloca i32, align 4
  store ptr %0, ptr %3, align 8
  store i32 %1, ptr %4, align 4
  %5 = load ptr, ptr %3, align 8
  %6 = getelementptr inbounds %struct.Abc_Ntk_t_, ptr %5, i32 0, i32 5
  %7 = load ptr, ptr %6, align 8
  %8 = load i32, ptr %4, align 4
  %9 = call ptr @Vec_PtrEntry(ptr noundef %7, i32 noundef %8)
  ret ptr %9
}

; Function Attrs: nounwind uwtable
define internal ptr @Abc_ObjModel(ptr noundef %0) #0 {
  %2 = alloca ptr, align 8
  store ptr %0, ptr %2, align 8
  %3 = load ptr, ptr %2, align 8
  %4 = getelementptr inbounds %struct.Abc_Obj_t_, ptr %3, i32 0, i32 6
  %5 = load ptr, ptr %4, align 8
  ret ptr %5
}

; Function Attrs: nounwind uwtable
define internal ptr @Abc_NtkBox(ptr noundef %0, i32 noundef %1) #0 {
  %3 = alloca ptr, align 8
  %4 = alloca i32, align 4
  store ptr %0, ptr %3, align 8
  store i32 %1, ptr %4, align 4
  %5 = load ptr, ptr %3, align 8
  %6 = getelementptr inbounds %struct.Abc_Ntk_t_, ptr %5, i32 0, i32 11
  %7 = load ptr, ptr %6, align 8
  %8 = load i32, ptr %4, align 4
  %9 = call ptr @Vec_PtrEntry(ptr noundef %7, i32 noundef %8)
  ret ptr %9
}

; Function Attrs: nounwind uwtable
define internal i32 @Vec_PtrSize(ptr noundef %0) #0 {
  %2 = alloca ptr, align 8
  store ptr %0, ptr %2, align 8
  %3 = load ptr, ptr %2, align 8
  %4 = getelementptr inbounds %struct.Vec_Ptr_t_, ptr %3, i32 0, i32 1
  %5 = load i32, ptr %4, align 4
  ret i32 %5
}

; Function Attrs: nounwind uwtable
define void @Abc_NtkCleanNext(ptr noundef %0) #0 {
  %2 = alloca ptr, align 8
  %3 = alloca ptr, align 8
  %4 = alloca i32, align 4
  store ptr %0, ptr %2, align 8
  store i32 0, ptr %4, align 4
  br label %5

5:                                                ; preds = %26, %1
  %6 = load i32, ptr %4, align 4
  %7 = load ptr, ptr %2, align 8
  %8 = getelementptr inbounds %struct.Abc_Ntk_t_, ptr %7, i32 0, i32 5
  %9 = load ptr, ptr %8, align 8
  %10 = call i32 @Vec_PtrSize(ptr noundef %9)
  %11 = icmp slt i32 %6, %10
  br i1 %11, label %12, label %16

12:                                               ; preds = %5
  %13 = load ptr, ptr %2, align 8
  %14 = load i32, ptr %4, align 4
  %15 = call ptr @Abc_NtkObj(ptr noundef %13, i32 noundef %14)
  store ptr %15, ptr %3, align 8
  br label %16

16:                                               ; preds = %12, %5
  %17 = phi i1 [ false, %5 ], [ true, %12 ]
  br i1 %17, label %18, label %29

18:                                               ; preds = %16
  %19 = load ptr, ptr %3, align 8
  %20 = icmp eq ptr %19, null
  br i1 %20, label %21, label %22

21:                                               ; preds = %18
  br label %25

22:                                               ; preds = %18
  %23 = load ptr, ptr %3, align 8
  %24 = getelementptr inbounds %struct.Abc_Obj_t_, ptr %23, i32 0, i32 1
  store ptr null, ptr %24, align 8
  br label %25

25:                                               ; preds = %22, %21
  br label %26

26:                                               ; preds = %25
  %27 = load i32, ptr %4, align 4
  %28 = add nsw i32 %27, 1
  store i32 %28, ptr %4, align 4
  br label %5, !llvm.loop !38

29:                                               ; preds = %16
  ret void
}

; Function Attrs: nounwind uwtable
define void @Abc_NtkCleanNext_rec(ptr noundef %0) #0 {
  %2 = alloca ptr, align 8
  %3 = alloca ptr, align 8
  %4 = alloca i32, align 4
  store ptr %0, ptr %2, align 8
  %5 = load ptr, ptr %2, align 8
  call void @Abc_NtkCleanNext(ptr noundef %5)
  store i32 0, ptr %4, align 4
  br label %6

6:                                                ; preds = %22, %1
  %7 = load i32, ptr %4, align 4
  %8 = load ptr, ptr %2, align 8
  %9 = getelementptr inbounds %struct.Abc_Ntk_t_, ptr %8, i32 0, i32 11
  %10 = load ptr, ptr %9, align 8
  %11 = call i32 @Vec_PtrSize(ptr noundef %10)
  %12 = icmp slt i32 %7, %11
  br i1 %12, label %13, label %17

13:                                               ; preds = %6
  %14 = load ptr, ptr %2, align 8
  %15 = load i32, ptr %4, align 4
  %16 = call ptr @Abc_NtkBox(ptr noundef %14, i32 noundef %15)
  store ptr %16, ptr %3, align 8
  br label %17

17:                                               ; preds = %13, %6
  %18 = phi i1 [ false, %6 ], [ true, %13 ]
  br i1 %18, label %19, label %25

19:                                               ; preds = %17
  %20 = load ptr, ptr %3, align 8
  %21 = call ptr @Abc_ObjModel(ptr noundef %20)
  call void @Abc_NtkCleanNext_rec(ptr noundef %21)
  br label %22

22:                                               ; preds = %19
  %23 = load i32, ptr %4, align 4
  %24 = add nsw i32 %23, 1
  store i32 %24, ptr %4, align 4
  br label %6, !llvm.loop !39

25:                                               ; preds = %17
  ret void
}