; Function Attrs: nofree nosync nounwind memory(readwrite, inaccessiblemem: none) uwtable
define void @Abc_NtkCleanNext_rec(ptr noundef readonly captures(none) %0) local_unnamed_addr #6 {
  %2 = getelementptr inbounds nuw i8, ptr %0, i64 32
  %3 = load ptr, ptr %2, align 8
  %4 = getelementptr i8, ptr %3, i64 4
  %.val8.i = load i32, ptr %4, align 4
  %5 = icmp sgt i32 %.val8.i, 0
  br i1 %5, label %.lr.ph.i, label %Abc_NtkCleanNext.exit

.lr.ph.i:                                         ; preds = %1, %13
  %6 = phi ptr [ %14, %13 ], [ %3, %1 ]
  %indvars.iv.i = phi i64 [ %indvars.iv.next.i, %13 ], [ 0, %1 ]
  %7 = getelementptr i8, ptr %6, i64 8
  %.val7.val.i = load ptr, ptr %7, align 8
  %8 = getelementptr inbounds nuw ptr, ptr %.val7.val.i, i64 %indvars.iv.i
  %9 = load ptr, ptr %8, align 8
  %10 = icmp eq ptr %9, null
  br i1 %10, label %13, label %11

11:                                               ; preds = %.lr.ph.i
  %12 = getelementptr inbounds nuw i8, ptr %9, i64 8
  store ptr null, ptr %12, align 8
  %.pre.i = load ptr, ptr %2, align 8
  br label %13

13:                                               ; preds = %11, %.lr.ph.i
  %14 = phi ptr [ %.pre.i, %11 ], [ %6, %.lr.ph.i ]
  %indvars.iv.next.i = add nuw nsw i64 %indvars.iv.i, 1
  %15 = getelementptr i8, ptr %14, i64 4
  %.val.i = load i32, ptr %15, align 4
  %16 = sext i32 %.val.i to i64
  %17 = icmp slt i64 %indvars.iv.next.i, %16
  br i1 %17, label %.lr.ph.i, label %Abc_NtkCleanNext.exit, !llvm.loop !38

Abc_NtkCleanNext.exit:                            ; preds = %13, %1
  %18 = getelementptr inbounds nuw i8, ptr %0, i64 80
  %19 = load ptr, ptr %18, align 8
  %20 = getelementptr i8, ptr %19, i64 4
  %.val8 = load i32, ptr %20, align 4
  %21 = icmp sgt i32 %.val8, 0
  br i1 %21, label %.lr.ph, label %.critedge

.lr.ph:                                           ; preds = %Abc_NtkCleanNext.exit, %.lr.ph
  %indvars.iv = phi i64 [ %indvars.iv.next, %.lr.ph ], [ 0, %Abc_NtkCleanNext.exit ]
  %22 = phi ptr [ %27, %.lr.ph ], [ %19, %Abc_NtkCleanNext.exit ]
  %23 = getelementptr i8, ptr %22, i64 8
  %.val6.val = load ptr, ptr %23, align 8
  %24 = getelementptr inbounds nuw ptr, ptr %.val6.val, i64 %indvars.iv
  %25 = load ptr, ptr %24, align 8
  %26 = getelementptr i8, ptr %25, i64 56
  %.val7 = load ptr, ptr %26, align 8
  tail call void @Abc_NtkCleanNext_rec(ptr noundef %.val7)
  %indvars.iv.next = add nuw nsw i64 %indvars.iv, 1
  %27 = load ptr, ptr %18, align 8
  %28 = getelementptr i8, ptr %27, i64 4
  %.val = load i32, ptr %28, align 4
  %29 = sext i32 %.val to i64
  %30 = icmp slt i64 %indvars.iv.next, %29
  br i1 %30, label %.lr.ph, label %.critedge, !llvm.loop !39

.critedge:                                        ; preds = %.lr.ph, %Abc_NtkCleanNext.exit
  ret void
}